; Function Attrs: mustprogress nofree norecurse nosync nounwind willreturn memory(read, inaccessiblemem: none) uwtable
define noundef i32 @_ZNK18ColoringRulesModel8rowCountERK11QModelIndex(ptr nocapture noundef nonnull readonly align 8 dereferenceable(88) %0, ptr nocapture noundef nonnull readonly align 8 dereferenceable(24) %1) unnamed_addr #13 align 2 {
  %3 = getelementptr inbounds i8, ptr %1, i64 4
  %4 = load i32, ptr %3, align 4
  %5 = icmp sgt i32 %4, 0
  br i1 %5, label %23, label %6

6:                                                ; preds = %2
  %7 = load i32, ptr %1, align 8
  %8 = icmp sgt i32 %7, -1
  %9 = icmp eq i32 %4, 0
  %or.cond.i = and i1 %9, %8
  %10 = getelementptr inbounds i8, ptr %1, i64 16
  %11 = load ptr, ptr %10, align 8
  %12 = icmp ne ptr %11, null
  %or.cond = select i1 %or.cond.i, i1 %12, i1 false
  %13 = getelementptr inbounds i8, ptr %1, i64 8
  %14 = load i64, ptr %13, align 8
  %15 = inttoptr i64 %14 to ptr
  %16 = getelementptr inbounds i8, ptr %0, i64 16
  %17 = load ptr, ptr %16, align 8
  %.0 = select i1 %or.cond, ptr %15, ptr %17
  %18 = icmp eq ptr %.0, null
  br i1 %18, label %23, label %19

19:                                               ; preds = %6
  %20 = getelementptr inbounds i8, ptr %.0, i64 32
  %21 = load i64, ptr %20, align 8
  %22 = trunc i64 %21 to i32
  br label %23

23:                                               ; preds = %6, %2, %19
  %.06 = phi i32 [ %22, %19 ], [ 0, %2 ], [ 0, %6 ]
  ret i32 %.06
}